; Function Attrs: mustprogress uwtable
define noundef zeroext i1 @_ZNK4base15SparseHistogram17SerializeInfoImplEPNS_6PickleE(ptr noundef nonnull align 8 dereferenceable(112) %0, ptr noundef nonnull %1) unnamed_addr #0 align 2 personality ptr @__gxx_personality_v0 {
  %3 = alloca i32, align 4
  %4 = alloca %"class.base::BasicStringPiece", align 8
  call void @llvm.lifetime.start.p0(i64 16, ptr nonnull %4) #14
  %5 = getelementptr inbounds nuw i8, ptr %0, i64 8
  %6 = load ptr, ptr %5, align 8, !tbaa !3
  store ptr %6, ptr %4, align 8, !tbaa !48
  %7 = getelementptr inbounds nuw i8, ptr %4, i64 8
  %8 = getelementptr inbounds nuw i8, ptr %0, i64 16
  %9 = load i64, ptr %8, align 8, !tbaa !11
  store i64 %9, ptr %7, align 8, !tbaa !50
  %10 = call noundef zeroext i1 @_ZN4base6Pickle11WriteStringERKNS_16BasicStringPieceINSt7__cxx1112basic_stringIcSt11char_traitsIcESaIcEEEEE(ptr noundef nonnull align 8 dereferenceable(40) %1, ptr noundef nonnull align 8 dereferenceable(16) %4)
  br i1 %10, label %11, label %14

11:                                               ; preds = %2
  %12 = getelementptr inbounds nuw i8, ptr %0, i64 40
  %13 = load atomic volatile i32, ptr %12 monotonic, align 8
  call void @llvm.lifetime.start.p0(i64 4, ptr nonnull %3)
  store i32 %13, ptr %3, align 4, !tbaa !12
  call void @_ZN4base6Pickle16WriteBytesStaticILm4EEEvPKv(ptr noundef nonnull align 8 dereferenceable(40) %1, ptr noundef nonnull align 4 dereferenceable(4) %3)
  call void @llvm.lifetime.end.p0(i64 4, ptr nonnull %3)
  br label %14

14:                                               ; preds = %11, %2
  call void @llvm.lifetime.end.p0(i64 16, ptr nonnull %4) #14
  ret i1 %10
}